target datalayout = "e-m:e-p270:32:32-p271:32:32-p272:64:64-i64:64-i128:128-f80:128-n8:16:32:64-S128"
target triple = "x86_64-pc-linux-gnu"

; Function Attrs: alwaysinline nounwind willreturn memory(none) uwtable
define internal i32 @av_clip_uintp2_c(i32 noundef %0, i32 noundef %1) #5 {
  %3 = alloca i32, align 4
  %4 = alloca i32, align 4
  %5 = alloca i32, align 4
  store i32 %0, ptr %4, align 4, !tbaa !9
  store i32 %1, ptr %5, align 4, !tbaa !9
  %6 = load i32, ptr %4, align 4, !tbaa !9
  %7 = load i32, ptr %5, align 4, !tbaa !9
  %8 = shl i32 1, %7
  %9 = sub i32 %8, 1
  %10 = xor i32 %9, -1
  %11 = and i32 %6, %10
  %12 = icmp ne i32 %11, 0
  br i1 %12, label %13, label %21

13:                                               ; preds = %2
  %14 = load i32, ptr %4, align 4, !tbaa !9
  %15 = xor i32 %14, -1
  %16 = ashr i32 %15, 31
  %17 = load i32, ptr %5, align 4, !tbaa !9
  %18 = shl i32 1, %17
  %19 = sub i32 %18, 1
  %20 = and i32 %16, %19
  store i32 %20, ptr %3, align 4
  br label %23

21:                                               ; preds = %2
  %22 = load i32, ptr %4, align 4, !tbaa !9
  store i32 %22, ptr %3, align 4
  br label %23

23:                                               ; preds = %21, %13
  %24 = load i32, ptr %3, align 4
  ret i32 %24
}

; Function Attrs: nounwind uwtable
define internal void @pred8x16_plane_14_c(ptr noundef %0, i64 noundef %1) #1 {
  %3 = alloca ptr, align 8
  %4 = alloca i64, align 8
  %5 = alloca i32, align 4
  %6 = alloca i32, align 4
  %7 = alloca i32, align 4
  %8 = alloca ptr, align 8
  %9 = alloca i32, align 4
  %10 = alloca ptr, align 8
  %11 = alloca ptr, align 8
  %12 = alloca ptr, align 8
  %13 = alloca i32, align 4
  %14 = alloca i32, align 4
  %15 = alloca i32, align 4
  store ptr %0, ptr %3, align 8, !tbaa !12
  store i64 %1, ptr %4, align 8, !tbaa !14
  call void @llvm.lifetime.start.p0(i64 4, ptr %5) #9
  call void @llvm.lifetime.start.p0(i64 4, ptr %6) #9
  call void @llvm.lifetime.start.p0(i64 4, ptr %7) #9
  call void @llvm.lifetime.start.p0(i64 8, ptr %8) #9
  %16 = load ptr, ptr %3, align 8, !tbaa !12
  store ptr %16, ptr %8, align 8, !tbaa !16
  call void @llvm.lifetime.start.p0(i64 4, ptr %9) #9
  %17 = load i64, ptr %4, align 8, !tbaa !14
  %18 = ashr i64 %17, 1
  %19 = trunc i64 %18 to i32
  store i32 %19, ptr %9, align 4, !tbaa !9
  call void @llvm.lifetime.start.p0(i64 8, ptr %10) #9
  %20 = load ptr, ptr %8, align 8, !tbaa !16
  %21 = getelementptr inbounds i16, ptr %20, i64 3
  %22 = load i32, ptr %9, align 4, !tbaa !9
  %23 = sext i32 %22 to i64
  %24 = sub i64 0, %23
  %25 = getelementptr inbounds i16, ptr %21, i64 %24
  store ptr %25, ptr %10, align 8, !tbaa !16
  call void @llvm.lifetime.start.p0(i64 8, ptr %11) #9
  %26 = load ptr, ptr %8, align 8, !tbaa !16
  %27 = load i32, ptr %9, align 4, !tbaa !9
  %28 = mul nsw i32 8, %27
  %29 = sext i32 %28 to i64
  %30 = getelementptr inbounds i16, ptr %26, i64 %29
  %31 = getelementptr inbounds i16, ptr %30, i64 -1
  store ptr %31, ptr %11, align 8, !tbaa !16
  call void @llvm.lifetime.start.p0(i64 8, ptr %12) #9
  %32 = load ptr, ptr %11, align 8, !tbaa !16
  %33 = load i32, ptr %9, align 4, !tbaa !9
  %34 = mul nsw i32 2, %33
  %35 = sext i32 %34 to i64
  %36 = sub i64 0, %35
  %37 = getelementptr inbounds i16, ptr %32, i64 %36
  store ptr %37, ptr %12, align 8, !tbaa !16
  call void @llvm.lifetime.start.p0(i64 4, ptr %13) #9
  %38 = load ptr, ptr %10, align 8, !tbaa !16
  %39 = getelementptr inbounds i16, ptr %38, i64 1
  %40 = load i16, ptr %39, align 2, !tbaa !19
  %41 = zext i16 %40 to i32
  %42 = load ptr, ptr %10, align 8, !tbaa !16
  %43 = getelementptr inbounds i16, ptr %42, i64 -1
  %44 = load i16, ptr %43, align 2, !tbaa !19
  %45 = zext i16 %44 to i32
  %46 = sub nsw i32 %41, %45
  store i32 %46, ptr %13, align 4, !tbaa !9
  call void @llvm.lifetime.start.p0(i64 4, ptr %14) #9
  %47 = load ptr, ptr %11, align 8, !tbaa !16
  %48 = getelementptr inbounds i16, ptr %47, i64 0
  %49 = load i16, ptr %48, align 2, !tbaa !19
  %50 = zext i16 %49 to i32
  %51 = load ptr, ptr %12, align 8, !tbaa !16
  %52 = getelementptr inbounds i16, ptr %51, i64 0
  %53 = load i16, ptr %52, align 2, !tbaa !19
  %54 = zext i16 %53 to i32
  %55 = sub nsw i32 %50, %54
  store i32 %55, ptr %14, align 4, !tbaa !9
  store i32 2, ptr %6, align 4, !tbaa !9
  br label %56

56:                                               ; preds = %100, %2
  %57 = load i32, ptr %6, align 4, !tbaa !9
  %58 = icmp sle i32 %57, 4
  br i1 %58, label %59, label %103

59:                                               ; preds = %56
  %60 = load i32, ptr %9, align 4, !tbaa !9
  %61 = load ptr, ptr %11, align 8, !tbaa !16
  %62 = sext i32 %60 to i64
  %63 = getelementptr inbounds i16, ptr %61, i64 %62
  store ptr %63, ptr %11, align 8, !tbaa !16
  %64 = load i32, ptr %9, align 4, !tbaa !9
  %65 = load ptr, ptr %12, align 8, !tbaa !16
  %66 = sext i32 %64 to i64
  %67 = sub i64 0, %66
  %68 = getelementptr inbounds i16, ptr %65, i64 %67
  store ptr %68, ptr %12, align 8, !tbaa !16
  %69 = load i32, ptr %6, align 4, !tbaa !9
  %70 = load ptr, ptr %10, align 8, !tbaa !16
  %71 = load i32, ptr %6, align 4, !tbaa !9
  %72 = sext i32 %71 to i64
  %73 = getelementptr inbounds i16, ptr %70, i64 %72
  %74 = load i16, ptr %73, align 2, !tbaa !19
  %75 = zext i16 %74 to i32
  %76 = load ptr, ptr %10, align 8, !tbaa !16
  %77 = load i32, ptr %6, align 4, !tbaa !9
  %78 = sub nsw i32 0, %77
  %79 = sext i32 %78 to i64
  %80 = getelementptr inbounds i16, ptr %76, i64 %79
  %81 = load i16, ptr %80, align 2, !tbaa !19
  %82 = zext i16 %81 to i32
  %83 = sub nsw i32 %75, %82
  %84 = mul nsw i32 %69, %83
  %85 = load i32, ptr %13, align 4, !tbaa !9
  %86 = add nsw i32 %85, %84
  store i32 %86, ptr %13, align 4, !tbaa !9
  %87 = load i32, ptr %6, align 4, !tbaa !9
  %88 = load ptr, ptr %11, align 8, !tbaa !16
  %89 = getelementptr inbounds i16, ptr %88, i64 0
  %90 = load i16, ptr %89, align 2, !tbaa !19
  %91 = zext i16 %90 to i32
  %92 = load ptr, ptr %12, align 8, !tbaa !16
  %93 = getelementptr inbounds i16, ptr %92, i64 0
  %94 = load i16, ptr %93, align 2, !tbaa !19
  %95 = zext i16 %94 to i32
  %96 = sub nsw i32 %91, %95
  %97 = mul nsw i32 %87, %96
  %98 = load i32, ptr %14, align 4, !tbaa !9
  %99 = add nsw i32 %98, %97
  store i32 %99, ptr %14, align 4, !tbaa !9
  br label %100

100:                                              ; preds = %59
  %101 = load i32, ptr %6, align 4, !tbaa !9
  %102 = add nsw i32 %101, 1
  store i32 %102, ptr %6, align 4, !tbaa !9
  br label %56, !llvm.loop !200

103:                                              ; preds = %56
  br label %104

104:                                              ; preds = %130, %103
  %105 = load i32, ptr %6, align 4, !tbaa !9
  %106 = icmp sle i32 %105, 8
  br i1 %106, label %107, label %133

107:                                              ; preds = %104
  %108 = load i32, ptr %9, align 4, !tbaa !9
  %109 = load ptr, ptr %11, align 8, !tbaa !16
  %110 = sext i32 %108 to i64
  %111 = getelementptr inbounds i16, ptr %109, i64 %110
  store ptr %111, ptr %11, align 8, !tbaa !16
  %112 = load i32, ptr %9, align 4, !tbaa !9
  %113 = load ptr, ptr %12, align 8, !tbaa !16
  %114 = sext i32 %112 to i64
  %115 = sub i64 0, %114
  %116 = getelementptr inbounds i16, ptr %113, i64 %115
  store ptr %116, ptr %12, align 8, !tbaa !16
  %117 = load i32, ptr %6, align 4, !tbaa !9
  %118 = load ptr, ptr %11, align 8, !tbaa !16
  %119 = getelementptr inbounds i16, ptr %118, i64 0
  %120 = load i16, ptr %119, align 2, !tbaa !19
  %121 = zext i16 %120 to i32
  %122 = load ptr, ptr %12, align 8, !tbaa !16
  %123 = getelementptr inbounds i16, ptr %122, i64 0
  %124 = load i16, ptr %123, align 2, !tbaa !19
  %125 = zext i16 %124 to i32
  %126 = sub nsw i32 %121, %125
  %127 = mul nsw i32 %117, %126
  %128 = load i32, ptr %14, align 4, !tbaa !9
  %129 = add nsw i32 %128, %127
  store i32 %129, ptr %14, align 4, !tbaa !9
  br label %130

130:                                              ; preds = %107
  %131 = load i32, ptr %6, align 4, !tbaa !9
  %132 = add nsw i32 %131, 1
  store i32 %132, ptr %6, align 4, !tbaa !9
  br label %104, !llvm.loop !201

133:                                              ; preds = %104
  %134 = load i32, ptr %13, align 4, !tbaa !9
  %135 = mul nsw i32 17, %134
  %136 = add nsw i32 %135, 16
  %137 = ashr i32 %136, 5
  store i32 %137, ptr %13, align 4, !tbaa !9
  %138 = load i32, ptr %14, align 4, !tbaa !9
  %139 = mul nsw i32 5, %138
  %140 = add nsw i32 %139, 32
  %141 = ashr i32 %140, 6
  store i32 %141, ptr %14, align 4, !tbaa !9
  %142 = load ptr, ptr %11, align 8, !tbaa !16
  %143 = getelementptr inbounds i16, ptr %142, i64 0
  %144 = load i16, ptr %143, align 2, !tbaa !19
  %145 = zext i16 %144 to i32
  %146 = load ptr, ptr %12, align 8, !tbaa !16
  %147 = getelementptr inbounds i16, ptr %146, i64 8
  %148 = load i16, ptr %147, align 2, !tbaa !19
  %149 = zext i16 %148 to i32
  %150 = add nsw i32 %145, %149
  %151 = add nsw i32 %150, 1
  %152 = mul nsw i32 16, %151
  %153 = load i32, ptr %14, align 4, !tbaa !9
  %154 = mul nsw i32 7, %153
  %155 = sub nsw i32 %152, %154
  %156 = load i32, ptr %13, align 4, !tbaa !9
  %157 = mul nsw i32 3, %156
  %158 = sub nsw i32 %155, %157
  store i32 %158, ptr %7, align 4, !tbaa !9
  store i32 16, ptr %5, align 4, !tbaa !9
  br label %159

159:                                              ; preds = %239, %133
  %160 = load i32, ptr %5, align 4, !tbaa !9
  %161 = icmp sgt i32 %160, 0
  br i1 %161, label %162, label %242

162:                                              ; preds = %159
  call void @llvm.lifetime.start.p0(i64 4, ptr %15) #9
  %163 = load i32, ptr %7, align 4, !tbaa !9
  store i32 %163, ptr %15, align 4, !tbaa !9
  %164 = load i32, ptr %14, align 4, !tbaa !9
  %165 = load i32, ptr %7, align 4, !tbaa !9
  %166 = add nsw i32 %165, %164
  store i32 %166, ptr %7, align 4, !tbaa !9
  %167 = load i32, ptr %15, align 4, !tbaa !9
  %168 = ashr i32 %167, 5
  %169 = call i32 @av_clip_uintp2_c(i32 noundef %168, i32 noundef 14) #10
  %170 = trunc i32 %169 to i16
  %171 = load ptr, ptr %8, align 8, !tbaa !16
  %172 = getelementptr inbounds i16, ptr %171, i64 0
  store i16 %170, ptr %172, align 2, !tbaa !19
  %173 = load i32, ptr %15, align 4, !tbaa !9
  %174 = load i32, ptr %13, align 4, !tbaa !9
  %175 = add nsw i32 %173, %174
  %176 = ashr i32 %175, 5
  %177 = call i32 @av_clip_uintp2_c(i32 noundef %176, i32 noundef 14) #10
  %178 = trunc i32 %177 to i16
  %179 = load ptr, ptr %8, align 8, !tbaa !16
  %180 = getelementptr inbounds i16, ptr %179, i64 1
  store i16 %178, ptr %180, align 2, !tbaa !19
  %181 = load i32, ptr %15, align 4, !tbaa !9
  %182 = load i32, ptr %13, align 4, !tbaa !9
  %183 = mul nsw i32 2, %182
  %184 = add nsw i32 %181, %183
  %185 = ashr i32 %184, 5
  %186 = call i32 @av_clip_uintp2_c(i32 noundef %185, i32 noundef 14) #10
  %187 = trunc i32 %186 to i16
  %188 = load ptr, ptr %8, align 8, !tbaa !16
  %189 = getelementptr inbounds i16, ptr %188, i64 2
  store i16 %187, ptr %189, align 2, !tbaa !19
  %190 = load i32, ptr %15, align 4, !tbaa !9
  %191 = load i32, ptr %13, align 4, !tbaa !9
  %192 = mul nsw i32 3, %191
  %193 = add nsw i32 %190, %192
  %194 = ashr i32 %193, 5
  %195 = call i32 @av_clip_uintp2_c(i32 noundef %194, i32 noundef 14) #10
  %196 = trunc i32 %195 to i16
  %197 = load ptr, ptr %8, align 8, !tbaa !16
  %198 = getelementptr inbounds i16, ptr %197, i64 3
  store i16 %196, ptr %198, align 2, !tbaa !19
  %199 = load i32, ptr %15, align 4, !tbaa !9
  %200 = load i32, ptr %13, align 4, !tbaa !9
  %201 = mul nsw i32 4, %200
  %202 = add nsw i32 %199, %201
  %203 = ashr i32 %202, 5
  %204 = call i32 @av_clip_uintp2_c(i32 noundef %203, i32 noundef 14) #10
  %205 = trunc i32 %204 to i16
  %206 = load ptr, ptr %8, align 8, !tbaa !16
  %207 = getelementptr inbounds i16, ptr %206, i64 4
  store i16 %205, ptr %207, align 2, !tbaa !19
  %208 = load i32, ptr %15, align 4, !tbaa !9
  %209 = load i32, ptr %13, align 4, !tbaa !9
  %210 = mul nsw i32 5, %209
  %211 = add nsw i32 %208, %210
  %212 = ashr i32 %211, 5
  %213 = call i32 @av_clip_uintp2_c(i32 noundef %212, i32 noundef 14) #10
  %214 = trunc i32 %213 to i16
  %215 = load ptr, ptr %8, align 8, !tbaa !16
  %216 = getelementptr inbounds i16, ptr %215, i64 5
  store i16 %214, ptr %216, align 2, !tbaa !19
  %217 = load i32, ptr %15, align 4, !tbaa !9
  %218 = load i32, ptr %13, align 4, !tbaa !9
  %219 = mul nsw i32 6, %218
  %220 = add nsw i32 %217, %219
  %221 = ashr i32 %220, 5
  %222 = call i32 @av_clip_uintp2_c(i32 noundef %221, i32 noundef 14) #10
  %223 = trunc i32 %222 to i16
  %224 = load ptr, ptr %8, align 8, !tbaa !16
  %225 = getelementptr inbounds i16, ptr %224, i64 6
  store i16 %223, ptr %225, align 2, !tbaa !19
  %226 = load i32, ptr %15, align 4, !tbaa !9
  %227 = load i32, ptr %13, align 4, !tbaa !9
  %228 = mul nsw i32 7, %227
  %229 = add nsw i32 %226, %228
  %230 = ashr i32 %229, 5
  %231 = call i32 @av_clip_uintp2_c(i32 noundef %230, i32 noundef 14) #10
  %232 = trunc i32 %231 to i16
  %233 = load ptr, ptr %8, align 8, !tbaa !16
  %234 = getelementptr inbounds i16, ptr %233, i64 7
  store i16 %232, ptr %234, align 2, !tbaa !19
  %235 = load i32, ptr %9, align 4, !tbaa !9
  %236 = load ptr, ptr %8, align 8, !tbaa !16
  %237 = sext i32 %235 to i64
  %238 = getelementptr inbounds i16, ptr %236, i64 %237
  store ptr %238, ptr %8, align 8, !tbaa !16
  call void @llvm.lifetime.end.p0(i64 4, ptr %15) #9
  br label %239

239:                                              ; preds = %162
  %240 = load i32, ptr %5, align 4, !tbaa !9
  %241 = add nsw i32 %240, -1
  store i32 %241, ptr %5, align 4, !tbaa !9
  br label %159, !llvm.loop !202

242:                                              ; preds = %159
  call void @llvm.lifetime.end.p0(i64 4, ptr %14) #9
  call void @llvm.lifetime.end.p0(i64 4, ptr %13) #9
  call void @llvm.lifetime.end.p0(i64 8, ptr %12) #9
  call void @llvm.lifetime.end.p0(i64 8, ptr %11) #9
  call void @llvm.lifetime.end.p0(i64 8, ptr %10) #9
  call void @llvm.lifetime.end.p0(i64 4, ptr %9) #9
  call void @llvm.lifetime.end.p0(i64 8, ptr %8) #9
  call void @llvm.lifetime.end.p0(i64 4, ptr %7) #9
  call void @llvm.lifetime.end.p0(i64 4, ptr %6) #9
  call void @llvm.lifetime.end.p0(i64 4, ptr %5) #9
  ret void
}