; Function Attrs: nofree norecurse nosync nounwind memory(argmem: readwrite) uwtable
define internal void @pred8x16_plane_14_c(ptr noundef captures(none) %0, i64 noundef %1) #3 {
  %3 = lshr i64 %1, 1
  %4 = trunc i64 %3 to i32
  %5 = getelementptr inbounds nuw i8, ptr %0, i64 6
  %sext = shl i64 %3, 32
  %6 = ashr exact i64 %sext, 32
  %7 = sub nsw i64 0, %6
  %8 = getelementptr inbounds i16, ptr %5, i64 %7
  %9 = shl nsw i32 %4, 3
  %10 = sext i32 %9 to i64
  %11 = getelementptr inbounds i16, ptr %0, i64 %10
  %12 = getelementptr inbounds i8, ptr %11, i64 -2
  %13 = shl nsw i32 %4, 1
  %14 = sext i32 %13 to i64
  %15 = sub nsw i64 0, %14
  %16 = getelementptr inbounds i16, ptr %12, i64 %15
  %17 = getelementptr inbounds nuw i8, ptr %8, i64 2
  %18 = load i16, ptr %17, align 2, !tbaa !9
  %19 = zext i16 %18 to i32
  %20 = getelementptr inbounds i8, ptr %8, i64 -2
  %21 = load i16, ptr %20, align 2, !tbaa !9
  %22 = zext i16 %21 to i32
  %23 = sub nsw i32 %19, %22
  %24 = load i16, ptr %12, align 2, !tbaa !9
  %25 = zext i16 %24 to i32
  %26 = load i16, ptr %16, align 2, !tbaa !9
  %27 = zext i16 %26 to i32
  %28 = sub nsw i32 %25, %27
  br label %29

29:                                               ; preds = %2, %29
  %indvars.iv = phi i64 [ 2, %2 ], [ %indvars.iv.next, %29 ]
  %.073109 = phi i32 [ %28, %2 ], [ %49, %29 ]
  %.074108 = phi i32 [ %23, %2 ], [ %42, %29 ]
  %.075107 = phi ptr [ %16, %2 ], [ %31, %29 ]
  %.077106 = phi ptr [ %12, %2 ], [ %30, %29 ]
  %30 = getelementptr inbounds i16, ptr %.077106, i64 %6
  %31 = getelementptr inbounds i16, ptr %.075107, i64 %7
  %32 = getelementptr inbounds nuw i16, ptr %8, i64 %indvars.iv
  %33 = load i16, ptr %32, align 2, !tbaa !9
  %34 = zext i16 %33 to i32
  %35 = sub nsw i64 0, %indvars.iv
  %36 = getelementptr inbounds i16, ptr %8, i64 %35
  %37 = load i16, ptr %36, align 2, !tbaa !9
  %38 = zext i16 %37 to i32
  %39 = sub nsw i32 %34, %38
  %40 = trunc nuw nsw i64 %indvars.iv to i32
  %41 = mul nsw i32 %39, %40
  %42 = add nsw i32 %41, %.074108
  %43 = load i16, ptr %30, align 2, !tbaa !9
  %44 = zext i16 %43 to i32
  %45 = load i16, ptr %31, align 2, !tbaa !9
  %46 = zext i16 %45 to i32
  %47 = sub nsw i32 %44, %46
  %48 = mul nsw i32 %47, %40
  %49 = add nsw i32 %48, %.073109
  %indvars.iv.next = add nuw nsw i64 %indvars.iv, 1
  %exitcond.not = icmp eq i64 %indvars.iv.next, 5
  br i1 %exitcond.not, label %.lr.ph, label %29, !llvm.loop !199

.lr.ph:                                           ; preds = %29, %.lr.ph
  %.1113 = phi i32 [ %58, %.lr.ph ], [ %49, %29 ]
  %.176112 = phi ptr [ %51, %.lr.ph ], [ %31, %29 ]
  %.178111 = phi ptr [ %50, %.lr.ph ], [ %30, %29 ]
  %.180110 = phi i32 [ %59, %.lr.ph ], [ 5, %29 ]
  %50 = getelementptr inbounds i16, ptr %.178111, i64 %6
  %51 = getelementptr inbounds i16, ptr %.176112, i64 %7
  %52 = load i16, ptr %50, align 2, !tbaa !9
  %53 = zext i16 %52 to i32
  %54 = load i16, ptr %51, align 2, !tbaa !9
  %55 = zext i16 %54 to i32
  %56 = sub nsw i32 %53, %55
  %57 = mul nsw i32 %56, %.180110
  %58 = add nsw i32 %57, %.1113
  %59 = add nuw nsw i32 %.180110, 1
  %exitcond126.not = icmp eq i32 %59, 9
  br i1 %exitcond126.not, label %._crit_edge, label %.lr.ph, !llvm.loop !200

._crit_edge:                                      ; preds = %.lr.ph
  %60 = getelementptr inbounds i16, ptr %.176112, i64 %7
  %61 = mul nsw i32 %42, 17
  %62 = add nsw i32 %61, 16
  %63 = ashr i32 %62, 5
  %64 = mul nsw i32 %58, 5
  %65 = add nsw i32 %64, 32
  %66 = ashr i32 %65, 6
  %67 = getelementptr inbounds nuw i8, ptr %60, i64 16
  %68 = load i16, ptr %67, align 2, !tbaa !9
  %69 = zext i16 %68 to i32
  %70 = add nuw nsw i32 %69, %53
  %71 = shl nuw nsw i32 %70, 4
  %.neg = mul nsw i32 %66, -7
  %72 = mul nsw i32 %63, 3
  %reass.sub = sub nsw i32 %.neg, %72
  %73 = add nsw i32 %reass.sub, 16
  %74 = add nsw i32 %73, %71
  %75 = shl nsw i32 %63, 1
  %76 = shl nsw i32 %63, 2
  %77 = mul nsw i32 %63, 5
  %78 = mul nsw i32 %63, 6
  %79 = mul nsw i32 %63, 7
  br label %80

80:                                               ; preds = %._crit_edge, %80
  %.0118 = phi i32 [ 16, %._crit_edge ], [ %129, %80 ]
  %.081117 = phi i32 [ %74, %._crit_edge ], [ %81, %80 ]
  %.082116 = phi ptr [ %0, %._crit_edge ], [ %128, %80 ]
  %81 = add nsw i32 %.081117, %66
  %82 = ashr i32 %.081117, 5
  %83 = tail call i32 @llvm.smax.i32(i32 %82, i32 0)
  %84 = tail call i32 @llvm.umin.i32(i32 %83, i32 16383)
  %85 = trunc nuw nsw i32 %84 to i16
  store i16 %85, ptr %.082116, align 2, !tbaa !9
  %86 = add nsw i32 %.081117, %63
  %87 = ashr i32 %86, 5
  %88 = tail call i32 @llvm.smax.i32(i32 %87, i32 0)
  %89 = tail call i32 @llvm.umin.i32(i32 %88, i32 16383)
  %90 = trunc nuw nsw i32 %89 to i16
  %91 = getelementptr inbounds nuw i8, ptr %.082116, i64 2
  store i16 %90, ptr %91, align 2, !tbaa !9
  %92 = add nsw i32 %.081117, %75
  %93 = ashr i32 %92, 5
  %94 = tail call i32 @llvm.smax.i32(i32 %93, i32 0)
  %95 = tail call i32 @llvm.umin.i32(i32 %94, i32 16383)
  %96 = trunc nuw nsw i32 %95 to i16
  %97 = getelementptr inbounds nuw i8, ptr %.082116, i64 4
  store i16 %96, ptr %97, align 2, !tbaa !9
  %98 = add nsw i32 %.081117, %72
  %99 = ashr i32 %98, 5
  %100 = tail call i32 @llvm.smax.i32(i32 %99, i32 0)
  %101 = tail call i32 @llvm.umin.i32(i32 %100, i32 16383)
  %102 = trunc nuw nsw i32 %101 to i16
  %103 = getelementptr inbounds nuw i8, ptr %.082116, i64 6
  store i16 %102, ptr %103, align 2, !tbaa !9
  %104 = add nsw i32 %.081117, %76
  %105 = ashr i32 %104, 5
  %106 = tail call i32 @llvm.smax.i32(i32 %105, i32 0)
  %107 = tail call i32 @llvm.umin.i32(i32 %106, i32 16383)
  %108 = trunc nuw nsw i32 %107 to i16
  %109 = getelementptr inbounds nuw i8, ptr %.082116, i64 8
  store i16 %108, ptr %109, align 2, !tbaa !9
  %110 = add nsw i32 %.081117, %77
  %111 = ashr i32 %110, 5
  %112 = tail call i32 @llvm.smax.i32(i32 %111, i32 0)
  %113 = tail call i32 @llvm.umin.i32(i32 %112, i32 16383)
  %114 = trunc nuw nsw i32 %113 to i16
  %115 = getelementptr inbounds nuw i8, ptr %.082116, i64 10
  store i16 %114, ptr %115, align 2, !tbaa !9
  %116 = add nsw i32 %.081117, %78
  %117 = ashr i32 %116, 5
  %118 = tail call i32 @llvm.smax.i32(i32 %117, i32 0)
  %119 = tail call i32 @llvm.umin.i32(i32 %118, i32 16383)
  %120 = trunc nuw nsw i32 %119 to i16
  %121 = getelementptr inbounds nuw i8, ptr %.082116, i64 12
  store i16 %120, ptr %121, align 2, !tbaa !9
  %122 = add nsw i32 %.081117, %79
  %123 = ashr i32 %122, 5
  %124 = tail call i32 @llvm.smax.i32(i32 %123, i32 0)
  %125 = tail call i32 @llvm.umin.i32(i32 %124, i32 16383)
  %126 = trunc nuw nsw i32 %125 to i16
  %127 = getelementptr inbounds nuw i8, ptr %.082116, i64 14
  store i16 %126, ptr %127, align 2, !tbaa !9
  %128 = getelementptr inbounds i16, ptr %.082116, i64 %6
  %129 = add nsw i32 %.0118, -1
  %130 = icmp samesign ugt i32 %.0118, 1
  br i1 %130, label %80, label %131, !llvm.loop !201

131:                                              ; preds = %80
  ret void
}